; Function Attrs: nounwind uwtable
define dso_local void @CacheInvalidateRelcache(ptr noundef readonly captures(none) %0) local_unnamed_addr #0 {
  %2 = getelementptr inbounds nuw i8, ptr %0, i64 72
  %3 = load i32, ptr %2, align 8
  %4 = getelementptr inbounds nuw i8, ptr %0, i64 56
  %5 = load ptr, ptr %4, align 8
  %6 = getelementptr inbounds nuw i8, ptr %5, i64 113
  %7 = load i8, ptr %6, align 1, !range !11, !noundef !12
  %8 = trunc nuw i8 %7 to i1
  %9 = load i32, ptr @MyDatabaseId, align 4
  %.0 = select i1 %8, i32 0, i32 %9
  %10 = tail call ptr @PrepareInvalidationState()
  tail call fastcc void @RegisterRelcacheInvalidation(ptr noundef %10, i32 noundef %.0, i32 noundef %3)
  ret void
}